target datalayout = "e-m:e-p270:32:32-p271:32:32-p272:64:64-i64:64-i128:128-f80:128-n8:16:32:64-S128"
target triple = "x86_64-pc-linux-gnu"

%struct.Proto = type { i8, i8, i8, i8, i8, i8, i8, i8, ptr, ptr, ptr, ptr, ptr, i64, ptr, ptr, ptr, ptr, ptr, ptr, ptr, ptr, ptr, ptr, i32, i32, i32, i32, i32, i32, i32, i32, i32, i32 }

; Function Attrs: mustprogress nounwind uwtable
define hidden noundef i32 @_Z12luaG_getlineP5Protoi(ptr noundef %0, i32 noundef %1) #2 {
  %3 = alloca i32, align 4
  %4 = alloca ptr, align 8
  %5 = alloca i32, align 4
  store ptr %0, ptr %4, align 8, !tbaa !27
  store i32 %1, ptr %5, align 4, !tbaa !9
  %6 = load ptr, ptr %4, align 8, !tbaa !27
  %7 = getelementptr inbounds nuw %struct.Proto, ptr %6, i32 0, i32 14
  %8 = load ptr, ptr %7, align 8, !tbaa !94
  %9 = icmp ne ptr %8, null
  br i1 %9, label %11, label %10

10:                                               ; preds = %2
  store i32 0, ptr %3, align 4
  br label %32

11:                                               ; preds = %2
  %12 = load ptr, ptr %4, align 8, !tbaa !27
  %13 = getelementptr inbounds nuw %struct.Proto, ptr %12, i32 0, i32 15
  %14 = load ptr, ptr %13, align 8, !tbaa !106
  %15 = load i32, ptr %5, align 4, !tbaa !9
  %16 = load ptr, ptr %4, align 8, !tbaa !27
  %17 = getelementptr inbounds nuw %struct.Proto, ptr %16, i32 0, i32 30
  %18 = load i32, ptr %17, align 8, !tbaa !107
  %19 = ashr i32 %15, %18
  %20 = sext i32 %19 to i64
  %21 = getelementptr inbounds i32, ptr %14, i64 %20
  %22 = load i32, ptr %21, align 4, !tbaa !9
  %23 = load ptr, ptr %4, align 8, !tbaa !27
  %24 = getelementptr inbounds nuw %struct.Proto, ptr %23, i32 0, i32 14
  %25 = load ptr, ptr %24, align 8, !tbaa !94
  %26 = load i32, ptr %5, align 4, !tbaa !9
  %27 = sext i32 %26 to i64
  %28 = getelementptr inbounds i8, ptr %25, i64 %27
  %29 = load i8, ptr %28, align 1, !tbaa !37
  %30 = zext i8 %29 to i32
  %31 = add nsw i32 %22, %30
  store i32 %31, ptr %3, align 4
  br label %32

32:                                               ; preds = %11, %10
  %33 = load i32, ptr %3, align 4
  ret i32 %33
}

; Function Attrs: mustprogress uwtable
define internal noundef i32 @_ZL10getmaxlineP5Proto(ptr noundef %0) #0 {
  %2 = alloca ptr, align 8
  %3 = alloca i32, align 4
  %4 = alloca i32, align 4
  %5 = alloca i32, align 4
  %6 = alloca i32, align 4
  %7 = alloca i32, align 4
  store ptr %0, ptr %2, align 8, !tbaa !27
  call void @llvm.lifetime.start.p0(i64 4, ptr %3) #11
  store i32 -1, ptr %3, align 4, !tbaa !9
  call void @llvm.lifetime.start.p0(i64 4, ptr %4) #11
  store i32 0, ptr %4, align 4, !tbaa !9
  br label %8

8:                                                ; preds = %28, %1
  %9 = load i32, ptr %4, align 4, !tbaa !9
  %10 = load ptr, ptr %2, align 8, !tbaa !27
  %11 = getelementptr inbounds nuw %struct.Proto, ptr %10, i32 0, i32 24
  %12 = load i32, ptr %11, align 8, !tbaa !96
  %13 = icmp slt i32 %9, %12
  br i1 %13, label %15, label %14

14:                                               ; preds = %8
  call void @llvm.lifetime.end.p0(i64 4, ptr %4) #11
  br label %31

15:                                               ; preds = %8
  call void @llvm.lifetime.start.p0(i64 4, ptr %5) #11
  %16 = load ptr, ptr %2, align 8, !tbaa !27
  %17 = load i32, ptr %4, align 4, !tbaa !9
  %18 = call noundef i32 @_Z12luaG_getlineP5Protoi(ptr noundef %16, i32 noundef %17)
  store i32 %18, ptr %5, align 4, !tbaa !9
  %19 = load i32, ptr %3, align 4, !tbaa !9
  %20 = load i32, ptr %5, align 4, !tbaa !9
  %21 = icmp slt i32 %19, %20
  br i1 %21, label %22, label %24

22:                                               ; preds = %15
  %23 = load i32, ptr %5, align 4, !tbaa !9
  br label %26

24:                                               ; preds = %15
  %25 = load i32, ptr %3, align 4, !tbaa !9
  br label %26

26:                                               ; preds = %24, %22
  %27 = phi i32 [ %23, %22 ], [ %25, %24 ]
  store i32 %27, ptr %3, align 4, !tbaa !9
  call void @llvm.lifetime.end.p0(i64 4, ptr %5) #11
  br label %28

28:                                               ; preds = %26
  %29 = load i32, ptr %4, align 4, !tbaa !9
  %30 = add nsw i32 %29, 1
  store i32 %30, ptr %4, align 4, !tbaa !9
  br label %8, !llvm.loop !113

31:                                               ; preds = %14
  call void @llvm.lifetime.start.p0(i64 4, ptr %6) #11
  store i32 0, ptr %6, align 4, !tbaa !9
  br label %32

32:                                               ; preds = %57, %31
  %33 = load i32, ptr %6, align 4, !tbaa !9
  %34 = load ptr, ptr %2, align 8, !tbaa !27
  %35 = getelementptr inbounds nuw %struct.Proto, ptr %34, i32 0, i32 25
  %36 = load i32, ptr %35, align 4, !tbaa !103
  %37 = icmp slt i32 %33, %36
  br i1 %37, label %39, label %38

38:                                               ; preds = %32
  call void @llvm.lifetime.end.p0(i64 4, ptr %6) #11
  br label %60

39:                                               ; preds = %32
  call void @llvm.lifetime.start.p0(i64 4, ptr %7) #11
  %40 = load ptr, ptr %2, align 8, !tbaa !27
  %41 = getelementptr inbounds nuw %struct.Proto, ptr %40, i32 0, i32 10
  %42 = load ptr, ptr %41, align 8, !tbaa !104
  %43 = load i32, ptr %6, align 4, !tbaa !9
  %44 = sext i32 %43 to i64
  %45 = getelementptr inbounds ptr, ptr %42, i64 %44
  %46 = load ptr, ptr %45, align 8, !tbaa !27
  %47 = call noundef i32 @_ZL10getmaxlineP5Proto(ptr noundef %46)
  store i32 %47, ptr %7, align 4, !tbaa !9
  %48 = load i32, ptr %3, align 4, !tbaa !9
  %49 = load i32, ptr %7, align 4, !tbaa !9
  %50 = icmp slt i32 %48, %49
  br i1 %50, label %51, label %53

51:                                               ; preds = %39
  %52 = load i32, ptr %7, align 4, !tbaa !9
  br label %55

53:                                               ; preds = %39
  %54 = load i32, ptr %3, align 4, !tbaa !9
  br label %55

55:                                               ; preds = %53, %51
  %56 = phi i32 [ %52, %51 ], [ %54, %53 ]
  store i32 %56, ptr %3, align 4, !tbaa !9
  call void @llvm.lifetime.end.p0(i64 4, ptr %7) #11
  br label %57

57:                                               ; preds = %55
  %58 = load i32, ptr %6, align 4, !tbaa !9
  %59 = add nsw i32 %58, 1
  store i32 %59, ptr %6, align 4, !tbaa !9
  br label %32, !llvm.loop !114

60:                                               ; preds = %38
  %61 = load i32, ptr %3, align 4, !tbaa !9
  call void @llvm.lifetime.end.p0(i64 4, ptr %3) #11
  ret i32 %61
}