; Function Attrs: mustprogress nofree nosync nounwind willreturn memory(read, inaccessiblemem: none) uwtable
define internal fastcc noundef range(i32 -1, -2147483648) i32 @_ZL10getmaxlineP5Proto(ptr noundef readonly captures(none) %0) unnamed_addr #11 {
  %2 = getelementptr inbounds nuw i8, ptr %0, i64 136
  %3 = load i32, ptr %2, align 8, !tbaa !84
  %4 = icmp sgt i32 %3, 0
  br i1 %4, label %.lr.ph, label %.preheader

.lr.ph:                                           ; preds = %1
  %5 = getelementptr inbounds nuw i8, ptr %0, i64 56
  %6 = load ptr, ptr %5, align 8, !tbaa !57
  %.not.i = icmp eq ptr %6, null
  br i1 %.not.i, label %.preheader, label %.lr.ph.split

.lr.ph.split:                                     ; preds = %.lr.ph
  %7 = getelementptr inbounds nuw i8, ptr %0, i64 160
  %8 = getelementptr inbounds nuw i8, ptr %0, i64 64
  %9 = load ptr, ptr %8, align 8, !tbaa !58
  %10 = load i32, ptr %7, align 8, !tbaa !59
  %wide.trip.count = zext nneg i32 %3 to i64
  br label %_Z12luaG_getlineP5Protoi.exit

.preheader:                                       ; preds = %_Z12luaG_getlineP5Protoi.exit, %.lr.ph, %1
  %.0.lcssa = phi i32 [ -1, %1 ], [ 0, %.lr.ph ], [ %25, %_Z12luaG_getlineP5Protoi.exit ]
  %11 = getelementptr inbounds nuw i8, ptr %0, i64 140
  %12 = load i32, ptr %11, align 4, !tbaa !89
  %13 = icmp sgt i32 %12, 0
  br i1 %13, label %.lr.ph24, label %._crit_edge

.lr.ph24:                                         ; preds = %.preheader
  %14 = getelementptr inbounds nuw i8, ptr %0, i64 24
  %15 = load ptr, ptr %14, align 8, !tbaa !90
  %wide.trip.count34 = zext nneg i32 %12 to i64
  br label %26

_Z12luaG_getlineP5Protoi.exit:                    ; preds = %.lr.ph.split, %_Z12luaG_getlineP5Protoi.exit
  %indvars.iv = phi i64 [ 0, %.lr.ph.split ], [ %indvars.iv.next, %_Z12luaG_getlineP5Protoi.exit ]
  %.021 = phi i32 [ -1, %.lr.ph.split ], [ %25, %_Z12luaG_getlineP5Protoi.exit ]
  %16 = trunc nuw nsw i64 %indvars.iv to i32
  %17 = lshr i32 %16, %10
  %18 = zext nneg i32 %17 to i64
  %19 = getelementptr inbounds nuw i32, ptr %9, i64 %18
  %20 = load i32, ptr %19, align 4, !tbaa !46
  %21 = getelementptr inbounds nuw i8, ptr %6, i64 %indvars.iv
  %22 = load i8, ptr %21, align 1, !tbaa !26
  %23 = zext i8 %22 to i32
  %24 = add nsw i32 %20, %23
  %25 = tail call i32 @llvm.smax.i32(i32 %.021, i32 %24)
  %indvars.iv.next = add nuw nsw i64 %indvars.iv, 1
  %exitcond.not = icmp eq i64 %indvars.iv.next, %wide.trip.count
  br i1 %exitcond.not, label %.preheader, label %_Z12luaG_getlineP5Protoi.exit, !llvm.loop !97

._crit_edge:                                      ; preds = %26, %.preheader
  %.1.lcssa = phi i32 [ %.0.lcssa, %.preheader ], [ %30, %26 ]
  ret i32 %.1.lcssa

26:                                               ; preds = %.lr.ph24, %26
  %indvars.iv31 = phi i64 [ 0, %.lr.ph24 ], [ %indvars.iv.next32, %26 ]
  %.123 = phi i32 [ %.0.lcssa, %.lr.ph24 ], [ %30, %26 ]
  %27 = getelementptr inbounds nuw ptr, ptr %15, i64 %indvars.iv31
  %28 = load ptr, ptr %27, align 8, !tbaa !91
  %29 = tail call fastcc noundef i32 @_ZL10getmaxlineP5Proto(ptr noundef %28)
  %30 = tail call i32 @llvm.smax.i32(i32 %.123, i32 %29)
  %indvars.iv.next32 = add nuw nsw i64 %indvars.iv31, 1
  %exitcond35.not = icmp eq i64 %indvars.iv.next32, %wide.trip.count34
  br i1 %exitcond35.not, label %._crit_edge, label %26, !llvm.loop !98
}